target datalayout = "e-m:e-p270:32:32-p271:32:32-p272:64:64-i64:64-i128:128-f80:128-n8:16:32:64-S128"
target triple = "x86_64-pc-linux-gnu"

; Function Attrs: mustprogress uwtable
define dso_local noundef ptr @_Z17luaL_checklstringP9lua_StateiPm(ptr noundef %0, i32 noundef %1, ptr noundef %2) #3 {
  %4 = alloca ptr, align 8
  %5 = alloca i32, align 4
  %6 = alloca ptr, align 8
  %7 = alloca ptr, align 8
  store ptr %0, ptr %4, align 8
  store i32 %1, ptr %5, align 4
  store ptr %2, ptr %6, align 8
  %8 = load ptr, ptr %4, align 8
  %9 = load i32, ptr %5, align 4
  %10 = load ptr, ptr %6, align 8
  %11 = call noundef ptr @_Z13lua_tolstringP9lua_StateiPm(ptr noundef %8, i32 noundef %9, ptr noundef %10)
  store ptr %11, ptr %7, align 8
  %12 = load ptr, ptr %7, align 8
  %13 = icmp ne ptr %12, null
  br i1 %13, label %17, label %14

14:                                               ; preds = %3
  %15 = load ptr, ptr %4, align 8
  %16 = load i32, ptr %5, align 4
  call void @_ZL9tag_errorP9lua_Stateii(ptr noundef %15, i32 noundef %16, i32 noundef 5) #8
  unreachable

17:                                               ; preds = %3
  %18 = load ptr, ptr %7, align 8
  ret ptr %18
}